target datalayout = "e-m:e-p270:32:32-p271:32:32-p272:64:64-i64:64-i128:128-f80:128-n8:16:32:64-S128"
target triple = "x86_64-pc-linux-gnu"

%struct._lv_scale_t = type <{ %struct._lv_obj_t, %struct.lv_ll_t, ptr, i32, i32, i32, i64, i32, i32, i32, i32, i32 }>
%struct._lv_obj_t = type { ptr, ptr, ptr, ptr, ptr, %struct.lv_area_t, i32, i16, i16 }
%struct.lv_area_t = type { i32, i32, i32, i32 }
%struct.lv_ll_t = type { i32, ptr, ptr }
%struct._lv_scale_section_t = type { ptr, ptr, ptr, i32, i32, i32, i32, i32, i32, i32, i32, %struct.lv_point_t, %struct.lv_point_t }
%struct.lv_point_t = type { i32, i32 }

; Function Attrs: nounwind uwtable
define internal void @scale_find_section_tick_idx(ptr noundef %0) #0 {
  %2 = alloca ptr, align 8
  %3 = alloca ptr, align 8
  %4 = alloca i32, align 4
  %5 = alloca i32, align 4
  %6 = alloca i32, align 4
  %7 = alloca i32, align 4
  %8 = alloca i8, align 1
  %9 = alloca i32, align 4
  %10 = alloca ptr, align 8
  store ptr %0, ptr %2, align 8, !tbaa !3
  call void @llvm.lifetime.start.p0(i64 8, ptr %3) #7
  %11 = load ptr, ptr %2, align 8, !tbaa !3
  store ptr %11, ptr %3, align 8, !tbaa !3
  call void @llvm.lifetime.start.p0(i64 4, ptr %4) #7
  %12 = load ptr, ptr %3, align 8, !tbaa !3
  %13 = getelementptr inbounds nuw %struct._lv_scale_t, ptr %12, i32 0, i32 4
  %14 = load i32, ptr %13, align 4, !tbaa !16
  store i32 %14, ptr %4, align 4, !tbaa !25
  call void @llvm.lifetime.start.p0(i64 4, ptr %5) #7
  %15 = load ptr, ptr %3, align 8, !tbaa !3
  %16 = getelementptr inbounds nuw %struct._lv_scale_t, ptr %15, i32 0, i32 5
  %17 = load i32, ptr %16, align 8, !tbaa !17
  store i32 %17, ptr %5, align 4, !tbaa !25
  call void @llvm.lifetime.start.p0(i64 4, ptr %6) #7
  %18 = load ptr, ptr %3, align 8, !tbaa !3
  %19 = getelementptr inbounds nuw %struct._lv_scale_t, ptr %18, i32 0, i32 6
  %20 = load i64, ptr %19, align 4
  %21 = and i64 %20, 32767
  %22 = trunc i64 %21 to i32
  store i32 %22, ptr %6, align 4, !tbaa !25
  call void @llvm.lifetime.start.p0(i64 4, ptr %7) #7
  store i32 0, ptr %7, align 4, !tbaa !25
  store i32 0, ptr %7, align 4, !tbaa !25
  br label %23

23:                                               ; preds = %101, %1
  %24 = load i32, ptr %7, align 4, !tbaa !25
  %25 = load i32, ptr %6, align 4, !tbaa !25
  %26 = icmp ult i32 %24, %25
  br i1 %26, label %27, label %104

27:                                               ; preds = %23
  call void @llvm.lifetime.start.p0(i64 1, ptr %8) #7
  store i8 0, ptr %8, align 1, !tbaa !26
  %28 = load i32, ptr %7, align 4, !tbaa !25
  %29 = load ptr, ptr %3, align 8, !tbaa !3
  %30 = getelementptr inbounds nuw %struct._lv_scale_t, ptr %29, i32 0, i32 6
  %31 = load i64, ptr %30, align 4
  %32 = lshr i64 %31, 15
  %33 = and i64 %32, 32767
  %34 = trunc i64 %33 to i32
  %35 = urem i32 %28, %34
  %36 = icmp eq i32 %35, 0
  br i1 %36, label %37, label %38

37:                                               ; preds = %27
  store i8 1, ptr %8, align 1, !tbaa !26
  br label %38

38:                                               ; preds = %37, %27
  call void @llvm.lifetime.start.p0(i64 4, ptr %9) #7
  %39 = load i32, ptr %7, align 4, !tbaa !25
  %40 = load i32, ptr %6, align 4, !tbaa !25
  %41 = sub i32 %40, 1
  %42 = load i32, ptr %4, align 4, !tbaa !25
  %43 = load i32, ptr %5, align 4, !tbaa !25
  %44 = call i32 @lv_map(i32 noundef %39, i32 noundef 0, i32 noundef %41, i32 noundef %42, i32 noundef %43)
  store i32 %44, ptr %9, align 4, !tbaa !25
  call void @llvm.lifetime.start.p0(i64 8, ptr %10) #7
  %45 = load ptr, ptr %3, align 8, !tbaa !3
  %46 = getelementptr inbounds nuw %struct._lv_scale_t, ptr %45, i32 0, i32 1
  %47 = call ptr @lv_ll_get_tail(ptr noundef %46)
  store ptr %47, ptr %10, align 8, !tbaa !3
  br label %48

48:                                               ; preds = %95, %38
  %49 = load ptr, ptr %10, align 8, !tbaa !3
  %50 = icmp ne ptr %49, null
  br i1 %50, label %51, label %100

51:                                               ; preds = %48
  %52 = load ptr, ptr %10, align 8, !tbaa !3
  %53 = getelementptr inbounds nuw %struct._lv_scale_section_t, ptr %52, i32 0, i32 3
  %54 = load i32, ptr %53, align 8, !tbaa !42
  %55 = load i32, ptr %9, align 4, !tbaa !25
  %56 = icmp sle i32 %54, %55
  br i1 %56, label %57, label %93

57:                                               ; preds = %51
  %58 = load ptr, ptr %10, align 8, !tbaa !3
  %59 = getelementptr inbounds nuw %struct._lv_scale_section_t, ptr %58, i32 0, i32 4
  %60 = load i32, ptr %59, align 4, !tbaa !43
  %61 = load i32, ptr %9, align 4, !tbaa !25
  %62 = icmp sge i32 %60, %61
  br i1 %62, label %63, label %93

63:                                               ; preds = %57
  %64 = load ptr, ptr %10, align 8, !tbaa !3
  %65 = getelementptr inbounds nuw %struct._lv_scale_section_t, ptr %64, i32 0, i32 5
  %66 = load i32, ptr %65, align 8, !tbaa !44
  %67 = icmp eq i32 255, %66
  br i1 %67, label %68, label %77

68:                                               ; preds = %63
  %69 = load i32, ptr %7, align 4, !tbaa !25
  %70 = load ptr, ptr %10, align 8, !tbaa !3
  %71 = getelementptr inbounds nuw %struct._lv_scale_section_t, ptr %70, i32 0, i32 5
  store i32 %69, ptr %71, align 8, !tbaa !44
  %72 = load i8, ptr %8, align 1, !tbaa !26, !range !28, !noundef !29
  %73 = trunc i8 %72 to i1
  %74 = zext i1 %73 to i32
  %75 = load ptr, ptr %10, align 8, !tbaa !3
  %76 = getelementptr inbounds nuw %struct._lv_scale_section_t, ptr %75, i32 0, i32 7
  store i32 %74, ptr %76, align 8, !tbaa !46
  br label %77

77:                                               ; preds = %68, %63
  %78 = load ptr, ptr %10, align 8, !tbaa !3
  %79 = getelementptr inbounds nuw %struct._lv_scale_section_t, ptr %78, i32 0, i32 5
  %80 = load i32, ptr %79, align 8, !tbaa !44
  %81 = load i32, ptr %7, align 4, !tbaa !25
  %82 = icmp ne i32 %80, %81
  br i1 %82, label %83, label %92

83:                                               ; preds = %77
  %84 = load i32, ptr %7, align 4, !tbaa !25
  %85 = load ptr, ptr %10, align 8, !tbaa !3
  %86 = getelementptr inbounds nuw %struct._lv_scale_section_t, ptr %85, i32 0, i32 6
  store i32 %84, ptr %86, align 4, !tbaa !45
  %87 = load i8, ptr %8, align 1, !tbaa !26, !range !28, !noundef !29
  %88 = trunc i8 %87 to i1
  %89 = zext i1 %88 to i32
  %90 = load ptr, ptr %10, align 8, !tbaa !3
  %91 = getelementptr inbounds nuw %struct._lv_scale_section_t, ptr %90, i32 0, i32 8
  store i32 %89, ptr %91, align 4, !tbaa !47
  br label %92

92:                                               ; preds = %83, %77
  br label %94

93:                                               ; preds = %57, %51
  br label %94

94:                                               ; preds = %93, %92
  br label %95

95:                                               ; preds = %94
  %96 = load ptr, ptr %3, align 8, !tbaa !3
  %97 = getelementptr inbounds nuw %struct._lv_scale_t, ptr %96, i32 0, i32 1
  %98 = load ptr, ptr %10, align 8, !tbaa !3
  %99 = call ptr @lv_ll_get_prev(ptr noundef %97, ptr noundef %98)
  store ptr %99, ptr %10, align 8, !tbaa !3
  br label %48, !llvm.loop !50

100:                                              ; preds = %48
  call void @llvm.lifetime.end.p0(i64 8, ptr %10) #7
  call void @llvm.lifetime.end.p0(i64 4, ptr %9) #7
  call void @llvm.lifetime.end.p0(i64 1, ptr %8) #7
  br label %101

101:                                              ; preds = %100
  %102 = load i32, ptr %7, align 4, !tbaa !25
  %103 = add i32 %102, 1
  store i32 %103, ptr %7, align 4, !tbaa !25
  br label %23, !llvm.loop !51

104:                                              ; preds = %23
  call void @llvm.lifetime.end.p0(i64 4, ptr %7) #7
  call void @llvm.lifetime.end.p0(i64 4, ptr %6) #7
  call void @llvm.lifetime.end.p0(i64 4, ptr %5) #7
  call void @llvm.lifetime.end.p0(i64 4, ptr %4) #7
  call void @llvm.lifetime.end.p0(i64 8, ptr %3) #7
  ret void
}