; Function Attrs: nounwind uwtable
define internal fastcc void @scale_find_section_tick_idx(ptr noundef %0) unnamed_addr #0 {
  %2 = getelementptr inbounds nuw i8, ptr %0, i64 100
  %3 = load i32, ptr %2, align 4, !tbaa !15
  %4 = getelementptr inbounds nuw i8, ptr %0, i64 104
  %5 = load i32, ptr %4, align 8, !tbaa !16
  %6 = getelementptr inbounds nuw i8, ptr %0, i64 108
  %7 = load i64, ptr %6, align 4
  %8 = trunc i64 %7 to i32
  %9 = and i32 %8, 32767
  %.not44 = icmp eq i32 %9, 0
  br i1 %.not44, label %._crit_edge43, label %.lr.ph42

.lr.ph42:                                         ; preds = %1
  %10 = add nsw i32 %9, -1
  %11 = getelementptr inbounds nuw i8, ptr %0, i64 64
  br label %12

12:                                               ; preds = %.lr.ph42, %._crit_edge
  %.03140 = phi i32 [ 0, %.lr.ph42 ], [ %39, %._crit_edge ]
  %13 = load i64, ptr %6, align 4
  %14 = tail call i32 @lv_map(i32 noundef %.03140, i32 noundef 0, i32 noundef %10, i32 noundef %3, i32 noundef %5) #9
  %15 = tail call ptr @lv_ll_get_tail(ptr noundef nonnull %11) #9
  %.not38 = icmp eq ptr %15, null
  br i1 %.not38, label %._crit_edge, label %.lr.ph

.lr.ph:                                           ; preds = %12
  %16 = trunc i64 %13 to i32
  %17 = lshr i32 %16, 15
  %18 = and i32 %17, 32767
  %19 = urem i32 %.03140, %18
  %20 = icmp eq i32 %19, 0
  %21 = zext i1 %20 to i32
  br label %22

22:                                               ; preds = %.lr.ph, %37
  %.039 = phi ptr [ %15, %.lr.ph ], [ %38, %37 ]
  %23 = getelementptr inbounds nuw i8, ptr %.039, i64 24
  %24 = load i32, ptr %23, align 8, !tbaa !34
  %.not35 = icmp sgt i32 %24, %14
  br i1 %.not35, label %37, label %25

25:                                               ; preds = %22
  %26 = getelementptr inbounds nuw i8, ptr %.039, i64 28
  %27 = load i32, ptr %26, align 4, !tbaa !35
  %.not36 = icmp slt i32 %27, %14
  br i1 %.not36, label %37, label %28

28:                                               ; preds = %25
  %29 = getelementptr inbounds nuw i8, ptr %.039, i64 32
  %30 = load i32, ptr %29, align 8, !tbaa !30
  %31 = icmp eq i32 %30, 255
  br i1 %31, label %.thread, label %33

.thread:                                          ; preds = %28
  store i32 %.03140, ptr %29, align 8, !tbaa !30
  %32 = getelementptr inbounds nuw i8, ptr %.039, i64 40
  store i32 %21, ptr %32, align 8, !tbaa !39
  br label %37

33:                                               ; preds = %28
  %.not37 = icmp eq i32 %30, %.03140
  br i1 %.not37, label %37, label %34

34:                                               ; preds = %33
  %35 = getelementptr inbounds nuw i8, ptr %.039, i64 36
  store i32 %.03140, ptr %35, align 4, !tbaa !33
  %36 = getelementptr inbounds nuw i8, ptr %.039, i64 44
  store i32 %21, ptr %36, align 4, !tbaa !40
  br label %37

37:                                               ; preds = %.thread, %34, %33, %25, %22
  %38 = tail call ptr @lv_ll_get_prev(ptr noundef nonnull %11, ptr noundef nonnull %.039) #9
  %.not = icmp eq ptr %38, null
  br i1 %.not, label %._crit_edge, label %22, !llvm.loop !41

._crit_edge:                                      ; preds = %37, %12
  %39 = add nuw nsw i32 %.03140, 1
  %exitcond.not = icmp eq i32 %39, %9
  br i1 %exitcond.not, label %._crit_edge43, label %12, !llvm.loop !42

._crit_edge43:                                    ; preds = %._crit_edge, %1
  ret void
}